; Function Attrs: mustprogress noinline uwtable
define noundef ptr @_ZN6google8protobuf8internal9ArenaImpl23AllocateAlignedFallbackEm(ptr noundef nonnull align 8 dereferenceable(40) %0, i64 noundef %1) local_unnamed_addr #14 align 2 personality ptr @__gxx_personality_v0 {
  %3 = tail call noundef nonnull align 64 dereferenceable(64) ptr @llvm.threadlocal.address.p0(ptr align 64 @_ZN6google8protobuf8internal9ArenaImpl13thread_cache_E)
  %4 = tail call noundef ptr @_ZN6google8protobuf8internal9ArenaImpl22GetSerialArenaFallbackEPv(ptr noundef nonnull align 8 dereferenceable(40) %0, ptr noundef nonnull %3)
  %5 = getelementptr inbounds nuw i8, ptr %4, i64 48
  %6 = load ptr, ptr %5, align 8, !tbaa !50
  %7 = getelementptr inbounds nuw i8, ptr %4, i64 40
  %8 = load ptr, ptr %7, align 8, !tbaa !49
  %9 = ptrtoint ptr %6 to i64
  %10 = ptrtoint ptr %8 to i64
  %11 = sub i64 %9, %10
  %.not.i = icmp ugt i64 %1, %11
  br i1 %.not.i, label %12, label %14, !prof !39

12:                                               ; preds = %2
  %13 = tail call noundef ptr @_ZN6google8protobuf8internal11SerialArena23AllocateAlignedFallbackEm(ptr noundef nonnull align 8 dereferenceable(72) %4, i64 noundef %1)
  br label %_ZN6google8protobuf8internal11SerialArena15AllocateAlignedEm.exit

14:                                               ; preds = %2
  %15 = getelementptr inbounds nuw i8, ptr %8, i64 %1
  store ptr %15, ptr %7, align 8, !tbaa !49
  br label %_ZN6google8protobuf8internal11SerialArena15AllocateAlignedEm.exit

_ZN6google8protobuf8internal11SerialArena15AllocateAlignedEm.exit: ; preds = %12, %14
  %.0.i = phi ptr [ %13, %12 ], [ %8, %14 ]
  ret ptr %.0.i
}